; Function Attrs: mustprogress uwtable
define dso_local noundef zeroext i1 @_ZNK16cmStateDirectory17GetPropertyAsBoolERKNSt7__cxx1112basic_stringIcSt11char_traitsIcESaIcEEE(ptr noundef nonnull align 8 dereferenceable(40) %0, ptr noundef nonnull align 8 dereferenceable(32) %1) local_unnamed_addr #6 align 2 {
  %3 = getelementptr inbounds nuw i8, ptr %0, i64 16
  %4 = load ptr, ptr %3, align 8, !tbaa !116
  %5 = tail call noundef zeroext i1 @_ZNK7cmState17IsPropertyChainedERKNSt7__cxx1112basic_stringIcSt11char_traitsIcESaIcEEEN10cmProperty9ScopeTypeE(ptr noundef nonnull align 8 dereferenceable(705) %4, ptr noundef nonnull align 8 dereferenceable(32) %1, i32 noundef 2)
  %6 = tail call ptr @_ZNK16cmStateDirectory11GetPropertyERKNSt7__cxx1112basic_stringIcSt11char_traitsIcESaIcEEEb(ptr noundef nonnull align 8 dereferenceable(40) %0, ptr noundef nonnull align 8 dereferenceable(32) %1, i1 noundef zeroext %5)
  %.not.i = icmp eq ptr %6, null
  br i1 %.not.i, label %_ZNK7cmValue4IsOnEv.exit, label %7

7:                                                ; preds = %2
  %8 = load ptr, ptr %6, align 8, !tbaa !19
  %9 = getelementptr inbounds nuw i8, ptr %6, i64 8
  %10 = load i64, ptr %9, align 8, !tbaa !22
  %11 = tail call noundef zeroext i1 @_ZN7cmValue4IsOnESt17basic_string_viewIcSt11char_traitsIcEE(i64 %10, ptr %8) #25
  br label %_ZNK7cmValue4IsOnEv.exit

_ZNK7cmValue4IsOnEv.exit:                         ; preds = %2, %7
  %12 = phi i1 [ false, %2 ], [ %11, %7 ]
  ret i1 %12
}